Certificate:
    Data:
        Version: 3 (0x2)
        Serial Number: 1 (0x1)
    Signature Algorithm: sha256WithRSAEncryption
        Issuer: C=CN, ST=GD, O=CEPREI, OU=XXAQ, CN=xtjin/emailAddress=xxx@ceprei.com
        Validity
            Not Before: Mar  2 09:07:44 2020 GMT
            Not After : Mar  2 09:07:44 2021 GMT
        Subject: C=CN, ST=GD, O=CEPREI, OU=XXAQ, CN=xtjin/emailAddress=xxx@ceprei.com
        Subject Public Key Info:
            Public Key Algorithm: rsaEncryption
                Public-Key: (2048 bit)
                Modulus:
                    00:b8:b9:35:b6:8c:4f:b7:17:95:a1:27:97:72:04:
                    6b:f1:8f:e7:3c:00:72:a4:1c:89:a0:dd:fd:ea:2f:
                    91:70:c5:39:cb:a1:13:9f:46:5e:3e:13:9b:7d:91:
                    fa:51:9e:c5:05:8b:b0:4a:92:98:e6:7f:a3:64:1e:
                    d0:83:7f:cc:e3:09:7b:a0:40:92:e3:12:9b:52:d7:
                    7a:dd:3b:71:57:9c:07:58:76:96:62:f1:b0:75:ab:
                    57:3c:b0:0f:d1:2a:ec:d0:e9:78:f0:34:c3:15:58:
                    3d:83:07:ad:13:a9:bd:48:b7:bd:6d:f9:40:e1:e0:
                    49:5a:ab:12:fa:7f:70:c0:6c:26:29:79:bf:15:08:
                    91:17:e0:a8:8a:cc:5a:59:77:e5:eb:57:a6:d2:1f:
                    00:67:b2:5e:8b:a1:07:15:35:58:08:d9:7e:d1:d2:
                    66:76:2d:0b:83:4a:37:ea:c7:68:2a:9a:5b:a6:db:
                    a5:49:d4:61:73:92:6a:d7:02:84:c4:b8:19:f8:e8:
                    95:3c:54:95:08:2a:c0:49:df:d6:e7:6a:d7:05:d5:
                    03:01:4b:3e:c3:66:b2:89:aa:46:6b:6a:e4:fb:0c:
                    08:f1:d5:6a:c2:79:41:46:f7:fc:22:08:02:ef:aa:
                    a8:df:e3:c8:f6:42:50:f7:7d:54:18:4f:7f:76:cd:
                    3e:d3
                Exponent: 65537 (0x10001)
        X509v3 extensions:
            X509v3 Basic Constraints: 
                CA:FALSE
            Netscape Comment: 
                OpenSSL Generated Certificate
            X509v3 Subject Key Identifier: 
                4B:C4:5E:D8:4D:95:3D:6F:60:11:E6:17:E2:44:04:88:B3:6D:DB:30
            X509v3 Authority Key Identifier: 
                keyid:4B:C4:5E:D8:4D:95:3D:6F:60:11:E6:17:E2:44:04:88:B3:6D:DB:30

    Signature Algorithm: sha256WithRSAEncryption
         21:cd:2d:1c:82:cd:6c:74:ec:7d:36:96:ea:e6:ad:8d:6e:01:
         41:e8:58:35:eb:b0:dd:8b:91:60:35:8a:39:a6:15:4b:90:c8:
         c8:15:6c:de:94:18:5b:aa:59:17:79:91:50:91:34:be:ec:d3:
         5a:41:a9:2c:32:77:6e:de:ab:3a:57:dd:23:b7:a1:45:fb:37:
         b1:c4:9c:07:22:d8:a6:0f:63:31:3b:96:64:18:f2:11:7b:c5:
         38:16:84:68:dc:d8:ca:a3:9c:97:34:84:12:07:8e:5a:e9:01:
         73:92:e3:3e:b6:79:85:d9:23:13:cc:46:59:39:05:59:78:f9:
         a1:57:3f:8c:51:61:9e:23:5a:83:26:86:61:06:ea:fe:3f:77:
         1c:10:56:4c:6d:4b:08:0c:00:79:cd:29:da:ae:b3:8a:f1:2d:
         93:e0:a0:81:20:a9:a6:e1:ad:5f:cb:94:33:1a:e8:45:14:d5:
         b4:57:23:f0:6d:94:52:88:f6:c0:e4:df:99:24:e0:b8:e5:68:
         a2:85:0c:db:12:f5:61:d5:d5:c7:b5:ac:e4:82:be:c3:e5:6e:
         a8:11:2c:62:c3:d3:52:32:30:e0:f1:d1:ff:1a:8f:32:ad:f6:
         4e:0c:15:97:a2:3c:c0:c2:64:5e:c1:d9:50:1d:79:c0:f8:0a:
         51:5b:a0:3f
-----BEGIN CERTIFICATE-----
MIIDyDCCArCgAwIBAgIBATANBgkqhkiG9w0BAQsFADBpMQswCQYDVQQGEwJDTjEL
MAkGA1UECAwCR0QxDzANBgNVBAoMBkNFUFJFSTENMAsGA1UECwwEWFhBUTEOMAwG
A1UEAwwFeHRqaW4xHTAbBgkqhkiG9w0BCQEWDnh4eEBjZXByZWkuY29tMB4XDTIw
MDMwMjA5MDc0NFoXDTIxMDMwMjA5MDc0NFowaTELMAkGA1UEBhMCQ04xCzAJBgNV
BAgMAkdEMQ8wDQYDVQQKDAZDRVBSRUkxDTALBgNVBAsMBFhYQVExDjAMBgNVBAMM
BXh0amluMR0wGwYJKoZIhvcNAQkBFg54eHhAY2VwcmVpLmNvbTCCASIwDQYJKoZI
hvcNAQEBBQADggEPADCCAQoCggEBALi5NbaMT7cXlaEnl3IEa/GP5zwAcqQciaDd
/eovkXDFOcuhE59GXj4Tm32R+lGexQWLsEqSmOZ/o2Qe0IN/zOMJe6BAkuMSm1LX
et07cVecB1h2lmLxsHWrVzywD9Eq7NDpePA0wxVYPYMHrROpvUi3vW35QOHgSVqr
Evp/cMBsJil5vxUIkRfgqIrMWll35etXptIfAGeyXouhBxU1WAjZftHSZnYtC4NK
N+rHaCqaW6bbpUnUYXOSatcChMS4GfjolTxUlQgqwEnf1udq1wXVAwFLPsNmsomq
Rmtq5PsMCPHVasJ5QUb3/CIIAu+qqN/jyPZCUPd9VBhPf3bNPtMCAwEAAaN7MHkw
CQYDVR0TBAIwADAsBglghkgBhvhCAQ0EHxYdT3BlblNTTCBHZW5lcmF0ZWQgQ2Vy
dGlmaWNhdGUwHQYDVR0OBBYEFEvEXthNlT1vYBHmF+JEBIizbdswMB8GA1UdIwQY
MBaAFEvEXthNlT1vYBHmF+JEBIizbdswMA0GCSqGSIb3DQEBCwUAA4IBAQAhzS0c
gs1sdOx9Npbq5q2NbgFB6Fg167Ddi5FgNYo5phVLkMjIFWzelBhbqlkXeZFQkTS+
7NNaQaksMndu3qs6V90jt6FF+zexxJwHItimD2MxO5ZkGPIRe8U4FoRo3NjKo5yX
NIQSB45a6QFzkuM+tnmF2SMTzEZZOQVZePmhVz+MUWGeI1qDJoZhBur+P3ccEFZM
bUsIDAB5zSnarrOK8S2T4KCBIKmm4a1fy5QzGuhFFNW0VyPwbZRSiPbA5N+ZJOC4
5WiihQzbEvVh1dXHtazkgr7D5W6oESxiw9NSMjDg8dH/Go8yrfZODBWXojzAwmRe
wdlQHXnA+ApRW6A/
-----END CERTIFICATE-----
