Certificate:
    Data:
        Version: 3 (0x2)
        Serial Number: 2 (0x2)
    Signature Algorithm: sha256WithRSAEncryption
        Issuer: C=CN, ST=GD, O=CEPREI, OU=XXAQ, CN=xtjin/emailAddress=xxx@ceprei.com
        Validity
            Not Before: Mar  2 09:45:12 2020 GMT
            Not After : Mar  2 09:45:12 2021 GMT
        Subject: C=CN, ST=GD, O=CEPREI, OU=XXAQ, CN=xVpn/emailAddress=xVpn@ceprei.com
        Subject Public Key Info:
            Public Key Algorithm: rsaEncryption
                Public-Key: (2048 bit)
                Modulus:
                    00:f5:c0:7b:28:41:3a:68:ba:d7:78:7a:3f:06:53:
                    4a:37:92:28:00:62:b4:68:7c:8b:7d:4d:8a:6f:5c:
                    3e:a1:bd:35:61:71:35:ff:67:35:ce:ff:a0:14:8b:
                    b6:4c:63:4d:f7:33:3f:66:28:9a:74:8c:3f:c9:34:
                    0a:7e:1e:01:ca:fe:16:f9:29:d7:8b:05:b4:58:df:
                    d2:db:07:63:f9:c9:2c:62:0e:12:2e:fa:00:20:33:
                    1d:84:5e:a0:35:fd:0c:27:17:c9:de:e2:0f:95:10:
                    8e:87:ac:5f:e5:9f:df:69:12:06:fe:45:08:ba:bb:
                    52:fe:71:c8:62:79:e6:3a:94:69:ff:22:f3:38:63:
                    a9:05:27:ef:d9:e2:72:a5:76:64:e1:8e:ef:d3:7e:
                    1e:54:87:1e:33:e6:36:47:72:75:7f:f5:05:77:f2:
                    89:22:69:b4:a1:1b:f7:18:e0:52:a7:29:1d:ac:fe:
                    c6:56:bd:1c:f2:4f:f3:19:e6:fd:6d:3d:95:06:11:
                    65:d6:cf:a1:5b:52:26:de:c6:b7:b5:bf:c8:ba:be:
                    38:83:56:9c:80:aa:15:8a:7d:e2:60:99:55:0e:8c:
                    29:fd:6f:cb:57:29:cb:8e:6f:9f:8c:71:38:a1:80:
                    93:78:63:07:3c:0c:ab:b1:51:c2:1a:8e:93:00:91:
                    6a:1b
                Exponent: 65537 (0x10001)
        X509v3 extensions:
            X509v3 Basic Constraints: 
                CA:FALSE
            Netscape Comment: 
                OpenSSL Generated Certificate
            X509v3 Subject Key Identifier: 
                AC:D9:71:5D:ED:A5:52:A3:86:CF:34:6B:63:A8:FD:3E:23:2B:BC:57
            X509v3 Authority Key Identifier: 
                keyid:4B:C4:5E:D8:4D:95:3D:6F:60:11:E6:17:E2:44:04:88:B3:6D:DB:30

    Signature Algorithm: sha256WithRSAEncryption
         2e:56:fb:a5:61:e2:6c:0b:0d:d2:07:b4:6c:37:82:a4:4a:d4:
         14:cc:ca:6b:6e:20:ab:7d:0a:1a:6c:b7:4e:b8:7f:0a:35:99:
         3a:f2:d6:f6:41:16:ef:f2:c3:26:39:6e:6e:82:5a:5c:6c:51:
         b6:0e:68:4a:1c:8d:2b:d5:12:49:b4:d2:ca:3c:d6:61:8f:a2:
         43:82:64:39:ec:8d:23:78:2c:eb:82:d1:83:3a:9c:3b:cc:8c:
         30:24:2a:5d:f8:4f:d3:15:14:e6:7c:2c:a6:03:24:35:b4:cd:
         cd:d3:58:09:9c:55:ee:32:21:e8:8a:a8:f0:dd:75:fe:4a:d3:
         d9:2f:5e:3c:1c:1a:6b:ef:dc:ec:93:ff:1f:8d:83:0c:8f:f7:
         24:60:9d:6f:52:56:a3:a2:48:39:71:12:23:8b:64:72:46:d1:
         4e:7d:e5:ed:18:17:03:dc:91:b7:14:7d:5b:ef:b2:c1:d1:a3:
         83:c9:72:ac:e1:f6:06:12:81:86:89:0c:64:35:24:59:8e:c7:
         b4:5d:7c:90:01:65:a5:3d:45:8e:94:67:a6:95:c1:5c:e6:b3:
         35:8d:5f:9a:e3:37:c0:4f:df:46:f4:bc:54:c1:87:f4:93:19:
         a5:ef:f8:75:6b:31:55:70:73:7c:77:9d:8b:1f:04:3a:64:35:
         52:bc:a3:24
-----BEGIN CERTIFICATE-----
MIIDyDCCArCgAwIBAgIBAjANBgkqhkiG9w0BAQsFADBpMQswCQYDVQQGEwJDTjEL
MAkGA1UECAwCR0QxDzANBgNVBAoMBkNFUFJFSTENMAsGA1UECwwEWFhBUTEOMAwG
A1UEAwwFeHRqaW4xHTAbBgkqhkiG9w0BCQEWDnh4eEBjZXByZWkuY29tMB4XDTIw
MDMwMjA5NDUxMloXDTIxMDMwMjA5NDUxMlowaTELMAkGA1UEBhMCQ04xCzAJBgNV
BAgMAkdEMQ8wDQYDVQQKDAZDRVBSRUkxDTALBgNVBAsMBFhYQVExDTALBgNVBAMM
BHhWcG4xHjAcBgkqhkiG9w0BCQEWD3hWcG5AY2VwcmVpLmNvbTCCASIwDQYJKoZI
hvcNAQEBBQADggEPADCCAQoCggEBAPXAeyhBOmi613h6PwZTSjeSKABitGh8i31N
im9cPqG9NWFxNf9nNc7/oBSLtkxjTfczP2YomnSMP8k0Cn4eAcr+Fvkp14sFtFjf
0tsHY/nJLGIOEi76ACAzHYReoDX9DCcXyd7iD5UQjoesX+Wf32kSBv5FCLq7Uv5x
yGJ55jqUaf8i8zhjqQUn79nicqV2ZOGO79N+HlSHHjPmNkdydX/1BXfyiSJptKEb
9xjgUqcpHaz+xla9HPJP8xnm/W09lQYRZdbPoVtSJt7Gt7W/yLq+OINWnICqFYp9
4mCZVQ6MKf1vy1cpy45vn4xxOKGAk3hjBzwMq7FRwhqOkwCRahsCAwEAAaN7MHkw
CQYDVR0TBAIwADAsBglghkgBhvhCAQ0EHxYdT3BlblNTTCBHZW5lcmF0ZWQgQ2Vy
dGlmaWNhdGUwHQYDVR0OBBYEFKzZcV3tpVKjhs80a2Oo/T4jK7xXMB8GA1UdIwQY
MBaAFEvEXthNlT1vYBHmF+JEBIizbdswMA0GCSqGSIb3DQEBCwUAA4IBAQAuVvul
YeJsCw3SB7RsN4KkStQUzMprbiCrfQoabLdOuH8KNZk68tb2QRbv8sMmOW5uglpc
bFG2DmhKHI0r1RJJtNLKPNZhj6JDgmQ57I0jeCzrgtGDOpw7zIwwJCpd+E/TFRTm
fCymAyQ1tM3N01gJnFXuMiHoiqjw3XX+StPZL148HBpr79zsk/8fjYMMj/ckYJ1v
Ulajokg5cRIji2RyRtFOfeXtGBcD3JG3FH1b77LB0aODyXKs4fYGEoGGiQxkNSRZ
jse0XXyQAWWlPUWOlGemlcFc5rM1jV+a4zfAT99G9LxUwYf0kxml7/h1azFVcHN8
d52LHwQ6ZDVSvKMk
-----END CERTIFICATE-----
